target datalayout = "e-m:e-p270:32:32-p271:32:32-p272:64:64-i64:64-i128:128-f80:128-n8:16:32:64-S128"
target triple = "x86_64-unknown-linux-gnu"

%"struct.node::inspector::protocol::Status" = type { i32, i64 }
%"class.node::inspector::protocol::cbor::(anonymous namespace)::CBOREncoder" = type { %"class.node::inspector::protocol::StreamingParserHandler", ptr, %"class.std::vector.183", ptr }
%"class.node::inspector::protocol::StreamingParserHandler" = type { ptr }
%"class.std::vector.183" = type { %"struct.std::_Vector_base.184" }
%"struct.std::_Vector_base.184" = type { %"struct.std::_Vector_base<node::inspector::protocol::cbor::EnvelopeEncoder, std::allocator<node::inspector::protocol::cbor::EnvelopeEncoder>>::_Vector_impl" }
%"struct.std::_Vector_base<node::inspector::protocol::cbor::EnvelopeEncoder, std::allocator<node::inspector::protocol::cbor::EnvelopeEncoder>>::_Vector_impl" = type { %"struct.std::_Vector_base<node::inspector::protocol::cbor::EnvelopeEncoder, std::allocator<node::inspector::protocol::cbor::EnvelopeEncoder>>::_Vector_impl_data" }
%"struct.std::_Vector_base<node::inspector::protocol::cbor::EnvelopeEncoder, std::allocator<node::inspector::protocol::cbor::EnvelopeEncoder>>::_Vector_impl_data" = type { ptr, ptr, ptr }

; Function Attrs: mustprogress nounwind uwtable
define dso_local void @_ZN4node9inspector8protocol4cbor12EncodeDoubleEdPSt6vectorIhSaIhEE(double noundef %value, ptr noundef %out) #0 {
entry:
  %value.addr = alloca double, align 8
  %out.addr = alloca ptr, align 8
  store double %value, ptr %value.addr, align 8
  store ptr %out, ptr %out.addr, align 8
  %0 = load double, ptr %value.addr, align 8
  %1 = load ptr, ptr %out.addr, align 8
  call void @_ZN4node9inspector8protocol4cbor16EncodeDoubleTmplISt6vectorIhSaIhEEEEvdPT_(double noundef %0, ptr noundef %1)
  ret void
}

; Function Attrs: mustprogress nounwind uwtable
define linkonce_odr dso_local noundef zeroext i1 @_ZNK4node9inspector8protocol6Status2okEv(ptr noundef nonnull align 8 dereferenceable(16) %this) #0 comdat align 2 {
entry:
  %this.addr = alloca ptr, align 8
  store ptr %this, ptr %this.addr, align 8
  %this1 = load ptr, ptr %this.addr, align 8
  %error = getelementptr inbounds %"struct.node::inspector::protocol::Status", ptr %this1, i32 0, i32 0
  %0 = load i32, ptr %error, align 8
  %cmp = icmp eq i32 %0, 0
  ret i1 %cmp
}

; Function Attrs: mustprogress nounwind uwtable
define internal void @_ZN4node9inspector8protocol4cbor12_GLOBAL__N_111CBOREncoderISt6vectorIhSaIhEEE12HandleDoubleEd(ptr noundef nonnull align 8 dereferenceable(48) %this, double noundef %value) unnamed_addr #0 align 2 {
entry:
  %this.addr = alloca ptr, align 8
  %value.addr = alloca double, align 8
  store ptr %this, ptr %this.addr, align 8
  store double %value, ptr %value.addr, align 8
  %this1 = load ptr, ptr %this.addr, align 8
  %status_ = getelementptr inbounds %"class.node::inspector::protocol::cbor::(anonymous namespace)::CBOREncoder", ptr %this1, i32 0, i32 3
  %0 = load ptr, ptr %status_, align 8
  %call = call noundef zeroext i1 @_ZNK4node9inspector8protocol6Status2okEv(ptr noundef nonnull align 8 dereferenceable(16) %0)
  br i1 %call, label %if.end, label %if.then

if.then:                                          ; preds = %entry
  br label %return

if.end:                                           ; preds = %entry
  %1 = load double, ptr %value.addr, align 8
  %out_ = getelementptr inbounds %"class.node::inspector::protocol::cbor::(anonymous namespace)::CBOREncoder", ptr %this1, i32 0, i32 1
  %2 = load ptr, ptr %out_, align 8
  call void @_ZN4node9inspector8protocol4cbor12EncodeDoubleEdPSt6vectorIhSaIhEE(double noundef %1, ptr noundef %2)
  br label %return

return:                                           ; preds = %if.end, %if.then
  ret void
}