; Function Attrs: mustprogress nounwind uwtable
define internal void @_ZN4node9inspector8protocol4cbor12_GLOBAL__N_111CBOREncoderISt6vectorIhSaIhEEE12HandleDoubleEd(ptr nocapture noundef nonnull readonly align 8 dereferenceable(48) %this, double noundef %value) unnamed_addr #1 align 2 {
entry:
  %status_ = getelementptr inbounds i8, ptr %this, i64 40
  %0 = load ptr, ptr %status_, align 8
  %1 = load i32, ptr %0, align 8
  %cmp.i = icmp eq i32 %1, 0
  br i1 %cmp.i, label %if.end, label %return

if.end:                                           ; preds = %entry
  %out_ = getelementptr inbounds i8, ptr %this, i64 8
  %2 = load ptr, ptr %out_, align 8
  tail call void @_ZN4node9inspector8protocol4cbor16EncodeDoubleTmplISt6vectorIhSaIhEEEEvdPT_(double noundef %value, ptr noundef %2)
  br label %return

return:                                           ; preds = %entry, %if.end
  ret void
}